ccopy_reg
_reconstructor
p0
(c__main__
TaskDatabase
p1
c__builtin__
object
p2
Ntp3
Rp4
(dp5
S'path'
p6
(lp7
sS'dirstack'
p8
(lp9
sS'root'
p10
g0
(c__main__
Task
p11
g2
Ntp12
Rp13
(dp14
S'parent'
p15
g13
sS'defer'
p16
NsS'task_id'
p17
S'todo'
p18
sS'prio'
p19
I1
sS'created'
p20
F1404652838.954051
sS'text'
p21
S'todo'
p22
sS'expanded'
p23
I00
sS'due'
p24
NsS'remain'
p25
NsS'done'
p26
NsS'deadline'
p27
NsS'children'
p28
(lp29
g0
(g11
g2
Ntp30
Rp31
(dp32
g15
g13
sg16
Nsg17
S'quit'
p33
sg19
I1
sg20
F1414702602.144485
sg21
S'quitting an empty td gives an error when trying to echo @'
p34
sg23
I00
sg24
Nsg25
Nsg26
F1414703574.822144
sg27
Nsg28
(lp35
sbag0
(g11
g2
Ntp36
Rp37
(dp38
g15
g13
sg16
Nsg17
S'user'
p39
sg19
I1
sg20
F1404652839.305471
sg21
S'user config file (user and host based)'
p40
sg23
I00
sg24
Nsg25
Nsg26
Nsg27
Nsg28
(lp41
sbag0
(g11
g2
Ntp42
Rp43
(dp44
g15
g13
sg16
Nsg17
S'conf'
p45
sg19
I1
sg20
F1404652839.289568
sg21
S'config file (key=value) with -c switch'
p46
sg23
I00
sg24
Nsg25
Nsg26
Nsg27
Nsg28
(lp47
sbag0
(g11
g2
Ntp48
Rp49
(dp50
g15
g13
sg16
Nsg17
S'allo'
p51
sg19
I1
sg20
F1404652839.311716
sg21
S'allow ansi on or off in config file'
p52
sg23
I00
sg24
Nsg25
Nsg26
Nsg27
Nsg28
(lp53
sbag0
(g11
g2
Ntp54
Rp55
(dp56
g15
g13
sg16
Nsg17
S'con1'
p57
sg19
I1
sg20
F1404652839.297111
sg21
S'config can switch off columns like remain'
p58
sg23
I00
sg24
Nsg25
Nsg26
Nsg27
Nsg28
(lp59
sbasbsS'curdir'
p60
g13
sb.