ccopy_reg
_reconstructor
p0
(c__main__
TaskDatabase
p1
c__builtin__
object
p2
Ntp3
Rp4
(dp5
S'path'
p6
(lp7
sS'dirstack'
p8
(lp9
sS'root'
p10
g0
(c__main__
Task
p11
g2
Ntp12
Rp13
(dp14
S'parent'
p15
g13
sS'defer'
p16
NsS'task_id'
p17
S'todo'
p18
sS'prio'
p19
I1
sS'created'
p20
F1402783870.19231
sS'text'
p21
S'0'
p22
sS'expanded'
p23
I00
sS'due'
p24
NsS'remain'
p25
NsS'done'
p26
NsS'deadline'
p27
NsS'children'
p28
(lp29
g0
(g11
g2
Ntp30
Rp31
(dp32
g15
g13
sg16
Nsg17
S'hono'
p33
sg19
I1
sg20
F1402783870.206677
sg21
S'honor 116 when available'
p34
sg23
I00
sg24
Nsg25
Nsg26
Nsg27
Nsg28
(lp35
sbag0
(g11
g2
Ntp36
Rp37
(dp38
g15
g13
sg16
Nsg17
S'echo'
p39
sg19
I1
sg20
F1402783870.212787
sg21
S'echo top task on exit'
p40
sg23
I00
sg24
Nsg25
Nsg26
Nsg27
Nsg28
(lp41
sbasbsS'curdir'
p42
g13
sb.